; ModuleID = '21/288.c'
source_filename = "21/288.c"
target datalayout = "e-m:e-p270:32:32-p271:32:32-p272:64:64-i64:64-f80:128-n8:16:32:64-S128"
target triple = "x86_64-pc-linux-gnu"

@.str = private unnamed_addr constant [3 x i8] c"%d\00", align 1
@.str.1 = private unnamed_addr constant [6 x i8] c"%d,%d\00", align 1

; Function Attrs: noinline nounwind uwtable
define dso_local void @main() #0 {
  %1 = alloca i32, align 4
  %2 = alloca i32, align 4
  %3 = alloca i32, align 4
  %4 = alloca i32, align 4
  %5 = alloca i32, align 4
  %6 = alloca i32, align 4
  %7 = alloca [400 x i32], align 16
  %8 = alloca float, align 4
  %9 = alloca float, align 4
  %10 = alloca float, align 4
  store i32 0, i32* %2, align 4
  store i32 0, i32* %3, align 4
  %11 = call i32 (i8*, ...) @__isoc99_scanf(i8* getelementptr inbounds ([3 x i8], [3 x i8]* @.str, i64 0, i64 0), i32* %1)
  store i32 0, i32* %4, align 4
  br label %12

12:                                               ; preds = %27, %0
  %13 = load i32, i32* %4, align 4
  %14 = load i32, i32* %1, align 4
  %15 = icmp slt i32 %13, %14
  br i1 %15, label %16, label %30

16:                                               ; preds = %12
  %17 = load i32, i32* %4, align 4
  %18 = sext i32 %17 to i64
  %19 = getelementptr inbounds [400 x i32], [400 x i32]* %7, i64 0, i64 %18
  %20 = call i32 (i8*, ...) @__isoc99_scanf(i8* getelementptr inbounds ([3 x i8], [3 x i8]* @.str, i64 0, i64 0), i32* %19)
  %21 = load i32, i32* %2, align 4
  %22 = load i32, i32* %4, align 4
  %23 = sext i32 %22 to i64
  %24 = getelementptr inbounds [400 x i32], [400 x i32]* %7, i64 0, i64 %23
  %25 = load i32, i32* %24, align 4
  %26 = add nsw i32 %21, %25
  store i32 %26, i32* %2, align 4
  br label %27

27:                                               ; preds = %16
  %28 = load i32, i32* %4, align 4
  %29 = add nsw i32 %28, 1
  store i32 %29, i32* %4, align 4
  br label %12

30:                                               ; preds = %12
  %31 = load i32, i32* %2, align 4
  %32 = sitofp i32 %31 to double
  %33 = load i32, i32* %1, align 4
  %34 = sitofp i32 %33 to double
  %35 = fdiv double %32, %34
  %36 = fptrunc double %35 to float
  store float %36, float* %8, align 4
  store i32 0, i32* %4, align 4
  br label %37

37:                                               ; preds = %84, %30
  %38 = load i32, i32* %4, align 4
  %39 = load i32, i32* %1, align 4
  %40 = sub nsw i32 %39, 1
  %41 = icmp slt i32 %38, %40
  br i1 %41, label %42, label %87

42:                                               ; preds = %37
  store i32 0, i32* %5, align 4
  br label %43

43:                                               ; preds = %80, %42
  %44 = load i32, i32* %5, align 4
  %45 = load i32, i32* %1, align 4
  %46 = sub nsw i32 %45, 1
  %47 = load i32, i32* %4, align 4
  %48 = sub nsw i32 %46, %47
  %49 = icmp slt i32 %44, %48
  br i1 %49, label %50, label %83

50:                                               ; preds = %43
  %51 = load i32, i32* %5, align 4
  %52 = sext i32 %51 to i64
  %53 = getelementptr inbounds [400 x i32], [400 x i32]* %7, i64 0, i64 %52
  %54 = load i32, i32* %53, align 4
  %55 = load i32, i32* %5, align 4
  %56 = add nsw i32 %55, 1
  %57 = sext i32 %56 to i64
  %58 = getelementptr inbounds [400 x i32], [400 x i32]* %7, i64 0, i64 %57
  %59 = load i32, i32* %58, align 4
  %60 = icmp sgt i32 %54, %59
  br i1 %60, label %61, label %79

61:                                               ; preds = %50
  %62 = load i32, i32* %5, align 4
  %63 = sext i32 %62 to i64
  %64 = getelementptr inbounds [400 x i32], [400 x i32]* %7, i64 0, i64 %63
  %65 = load i32, i32* %64, align 4
  store i32 %65, i32* %6, align 4
  %66 = load i32, i32* %5, align 4
  %67 = add nsw i32 %66, 1
  %68 = sext i32 %67 to i64
  %69 = getelementptr inbounds [400 x i32], [400 x i32]* %7, i64 0, i64 %68
  %70 = load i32, i32* %69, align 4
  %71 = load i32, i32* %5, align 4
  %72 = sext i32 %71 to i64
  %73 = getelementptr inbounds [400 x i32], [400 x i32]* %7, i64 0, i64 %72
  store i32 %70, i32* %73, align 4
  %74 = load i32, i32* %6, align 4
  %75 = load i32, i32* %5, align 4
  %76 = add nsw i32 %75, 1
  %77 = sext i32 %76 to i64
  %78 = getelementptr inbounds [400 x i32], [400 x i32]* %7, i64 0, i64 %77
  store i32 %74, i32* %78, align 4
  br label %79

79:                                               ; preds = %61, %50
  br label %80

80:                                               ; preds = %79
  %81 = load i32, i32* %5, align 4
  %82 = add nsw i32 %81, 1
  store i32 %82, i32* %5, align 4
  br label %43

83:                                               ; preds = %43
  br label %84

84:                                               ; preds = %83
  %85 = load i32, i32* %4, align 4
  %86 = add nsw i32 %85, 1
  store i32 %86, i32* %4, align 4
  br label %37

87:                                               ; preds = %37
  %88 = getelementptr inbounds [400 x i32], [400 x i32]* %7, i64 0, i64 0
  %89 = load i32, i32* %88, align 16
  %90 = sitofp i32 %89 to double
  %91 = fptrunc double %90 to float
  store float %91, float* %9, align 4
  %92 = load i32, i32* %1, align 4
  %93 = sub nsw i32 %92, 1
  %94 = sext i32 %93 to i64
  %95 = getelementptr inbounds [400 x i32], [400 x i32]* %7, i64 0, i64 %94
  %96 = load i32, i32* %95, align 4
  %97 = sitofp i32 %96 to double
  %98 = fptrunc double %97 to float
  store float %98, float* %10, align 4
  %99 = load float, float* %8, align 4
  %100 = load float, float* %9, align 4
  %101 = fsub float %99, %100
  %102 = fpext float %101 to double
  %103 = call double @llvm.fabs.f64(double %102)
  %104 = load float, float* %8, align 4
  %105 = load float, float* %10, align 4
  %106 = fsub float %104, %105
  %107 = fpext float %106 to double
  %108 = call double @llvm.fabs.f64(double %107)
  %109 = fcmp oeq double %103, %108
  br i1 %109, label %110, label %119

110:                                              ; preds = %87
  %111 = getelementptr inbounds [400 x i32], [400 x i32]* %7, i64 0, i64 0
  %112 = load i32, i32* %111, align 16
  %113 = load i32, i32* %1, align 4
  %114 = sub nsw i32 %113, 1
  %115 = sext i32 %114 to i64
  %116 = getelementptr inbounds [400 x i32], [400 x i32]* %7, i64 0, i64 %115
  %117 = load i32, i32* %116, align 4
  %118 = call i32 (i8*, ...) @printf(i8* getelementptr inbounds ([6 x i8], [6 x i8]* @.str.1, i64 0, i64 0), i32 %112, i32 %117)
  br label %143

119:                                              ; preds = %87
  %120 = load float, float* %8, align 4
  %121 = load float, float* %9, align 4
  %122 = fsub float %120, %121
  %123 = fpext float %122 to double
  %124 = call double @llvm.fabs.f64(double %123)
  %125 = load float, float* %8, align 4
  %126 = load float, float* %10, align 4
  %127 = fsub float %125, %126
  %128 = fpext float %127 to double
  %129 = call double @llvm.fabs.f64(double %128)
  %130 = fcmp ogt double %124, %129
  br i1 %130, label %131, label %135

131:                                              ; preds = %119
  %132 = getelementptr inbounds [400 x i32], [400 x i32]* %7, i64 0, i64 0
  %133 = load i32, i32* %132, align 16
  %134 = call i32 (i8*, ...) @printf(i8* getelementptr inbounds ([3 x i8], [3 x i8]* @.str, i64 0, i64 0), i32 %133)
  br label %142

135:                                              ; preds = %119
  %136 = load i32, i32* %1, align 4
  %137 = sub nsw i32 %136, 1
  %138 = sext i32 %137 to i64
  %139 = getelementptr inbounds [400 x i32], [400 x i32]* %7, i64 0, i64 %138
  %140 = load i32, i32* %139, align 4
  %141 = call i32 (i8*, ...) @printf(i8* getelementptr inbounds ([3 x i8], [3 x i8]* @.str, i64 0, i64 0), i32 %140)
  br label %142

142:                                              ; preds = %135, %131
  br label %143

143:                                              ; preds = %142, %110
  ret void
}

declare dso_local i32 @__isoc99_scanf(i8*, ...) #1

; Function Attrs: nounwind readnone speculatable willreturn
declare double @llvm.fabs.f64(double) #2

declare dso_local i32 @printf(i8*, ...) #1


!llvm.module.flags = !{!0}
!llvm.ident = !{!1}

!0 = !{i32 1, !"wchar_size", i32 4}
!1 = !{!"clang version 10.0.0-4ubuntu1 "}
