; ModuleID = 'source-C-CXX/20/288.c'
source_filename = "source-C-CXX/20/288.c"
target datalayout = "e-m:e-p270:32:32-p271:32:32-p272:64:64-i64:64-f80:128-n8:16:32:64-S128"
target triple = "x86_64-pc-linux-gnu"

@.str = private unnamed_addr constant [3 x i8] c"%d\00", align 1
@.str.1 = private unnamed_addr constant [6 x i8] c"%d,%d\00", align 1

; Function Attrs: nofree nounwind sspstrong uwtable
define dso_local void @main() local_unnamed_addr #0 {
  %1 = alloca i32, align 4
  %2 = alloca [400 x i32], align 16
  %3 = bitcast i32* %1 to i8*
  call void @llvm.lifetime.start.p0i8(i64 4, i8* nonnull %3) #4
  %4 = bitcast [400 x i32]* %2 to i8*
  call void @llvm.lifetime.start.p0i8(i64 1600, i8* nonnull %4) #4
  %5 = call i32 (i8*, ...) @__isoc99_scanf(i8* getelementptr inbounds ([3 x i8], [3 x i8]* @.str, i64 0, i64 0), i32* nonnull %1)
  %6 = load i32, i32* %1, align 4, !tbaa !5
  %7 = icmp sgt i32 %6, 0
  br i1 %7, label %12, label %8

8:                                                ; preds = %0
  %9 = sitofp i32 %6 to double
  %10 = fdiv double 0.000000e+00, %9
  %11 = add i32 %6, -1
  br label %74

12:                                               ; preds = %0, %12
  %13 = phi i64 [ %19, %12 ], [ 0, %0 ]
  %14 = phi i32 [ %18, %12 ], [ 0, %0 ]
  %15 = getelementptr inbounds [400 x i32], [400 x i32]* %2, i64 0, i64 %13
  %16 = call i32 (i8*, ...) @__isoc99_scanf(i8* getelementptr inbounds ([3 x i8], [3 x i8]* @.str, i64 0, i64 0), i32* nonnull %15)
  %17 = load i32, i32* %15, align 4, !tbaa !5
  %18 = add nsw i32 %17, %14
  %19 = add nuw nsw i64 %13, 1
  %20 = load i32, i32* %1, align 4, !tbaa !5
  %21 = sext i32 %20 to i64
  %22 = icmp slt i64 %19, %21
  br i1 %22, label %12, label %23, !llvm.loop !9

23:                                               ; preds = %12
  %24 = sitofp i32 %18 to double
  %25 = sitofp i32 %20 to double
  %26 = fdiv double %24, %25
  %27 = add i32 %20, -1
  %28 = icmp sgt i32 %20, 1
  br i1 %28, label %29, label %74

29:                                               ; preds = %23
  %30 = getelementptr inbounds [400 x i32], [400 x i32]* %2, i64 0, i64 0
  br label %31

31:                                               ; preds = %29, %71
  %32 = phi i32 [ 0, %29 ], [ %72, %71 ]
  %33 = sub i32 %27, %32
  %34 = zext i32 %33 to i64
  %35 = xor i32 %32, -1
  %36 = add i32 %20, %35
  %37 = icmp sgt i32 %36, 0
  br i1 %37, label %38, label %71

38:                                               ; preds = %31
  %39 = load i32, i32* %30, align 16, !tbaa !5
  %40 = and i64 %34, 1
  %41 = icmp eq i32 %33, 1
  br i1 %41, label %60, label %42

42:                                               ; preds = %38
  %43 = and i64 %34, 4294967294
  br label %44

44:                                               ; preds = %104, %42
  %45 = phi i32 [ %39, %42 ], [ %105, %104 ]
  %46 = phi i64 [ 0, %42 ], [ %56, %104 ]
  %47 = phi i64 [ %43, %42 ], [ %106, %104 ]
  %48 = or i64 %46, 1
  %49 = getelementptr inbounds [400 x i32], [400 x i32]* %2, i64 0, i64 %48
  %50 = load i32, i32* %49, align 4, !tbaa !5
  %51 = icmp sgt i32 %45, %50
  br i1 %51, label %52, label %54

52:                                               ; preds = %44
  %53 = getelementptr inbounds [400 x i32], [400 x i32]* %2, i64 0, i64 %46
  store i32 %50, i32* %53, align 8, !tbaa !5
  store i32 %45, i32* %49, align 4, !tbaa !5
  br label %54

54:                                               ; preds = %44, %52
  %55 = phi i32 [ %50, %44 ], [ %45, %52 ]
  %56 = add nuw nsw i64 %46, 2
  %57 = getelementptr inbounds [400 x i32], [400 x i32]* %2, i64 0, i64 %56
  %58 = load i32, i32* %57, align 8, !tbaa !5
  %59 = icmp sgt i32 %55, %58
  br i1 %59, label %102, label %104

60:                                               ; preds = %104, %38
  %61 = phi i32 [ %39, %38 ], [ %105, %104 ]
  %62 = phi i64 [ 0, %38 ], [ %56, %104 ]
  %63 = icmp eq i64 %40, 0
  br i1 %63, label %71, label %64

64:                                               ; preds = %60
  %65 = add nuw nsw i64 %62, 1
  %66 = getelementptr inbounds [400 x i32], [400 x i32]* %2, i64 0, i64 %65
  %67 = load i32, i32* %66, align 4, !tbaa !5
  %68 = icmp sgt i32 %61, %67
  br i1 %68, label %69, label %71

69:                                               ; preds = %64
  %70 = getelementptr inbounds [400 x i32], [400 x i32]* %2, i64 0, i64 %62
  store i32 %67, i32* %70, align 4, !tbaa !5
  store i32 %61, i32* %66, align 4, !tbaa !5
  br label %71

71:                                               ; preds = %60, %64, %69, %31
  %72 = add nuw nsw i32 %32, 1
  %73 = icmp eq i32 %72, %27
  br i1 %73, label %74, label %31, !llvm.loop !11

74:                                               ; preds = %71, %8, %23
  %75 = phi i32 [ %11, %8 ], [ %27, %23 ], [ %27, %71 ]
  %76 = phi double [ %10, %8 ], [ %26, %23 ], [ %26, %71 ]
  %77 = fptrunc double %76 to float
  %78 = getelementptr inbounds [400 x i32], [400 x i32]* %2, i64 0, i64 0
  %79 = load i32, i32* %78, align 16, !tbaa !5
  %80 = sext i32 %75 to i64
  %81 = getelementptr inbounds [400 x i32], [400 x i32]* %2, i64 0, i64 %80
  %82 = load i32, i32* %81, align 4, !tbaa !5
  %83 = insertelement <2 x i32> poison, i32 %79, i32 0
  %84 = insertelement <2 x i32> %83, i32 %82, i32 1
  %85 = sitofp <2 x i32> %84 to <2 x float>
  %86 = insertelement <2 x float> poison, float %77, i32 0
  %87 = shufflevector <2 x float> %86, <2 x float> poison, <2 x i32> zeroinitializer
  %88 = fsub <2 x float> %87, %85
  %89 = call <2 x float> @llvm.fabs.v2f32(<2 x float> %88)
  %90 = extractelement <2 x float> %89, i32 0
  %91 = extractelement <2 x float> %89, i32 1
  %92 = fcmp oeq float %90, %91
  br i1 %92, label %93, label %95

93:                                               ; preds = %74
  %94 = call i32 (i8*, ...) @printf(i8* nonnull dereferenceable(1) getelementptr inbounds ([6 x i8], [6 x i8]* @.str.1, i64 0, i64 0), i32 %79, i32 %82)
  br label %101

95:                                               ; preds = %74
  %96 = fcmp ogt float %90, %91
  br i1 %96, label %97, label %99

97:                                               ; preds = %95
  %98 = call i32 (i8*, ...) @printf(i8* nonnull dereferenceable(1) getelementptr inbounds ([3 x i8], [3 x i8]* @.str, i64 0, i64 0), i32 %79)
  br label %101

99:                                               ; preds = %95
  %100 = call i32 (i8*, ...) @printf(i8* nonnull dereferenceable(1) getelementptr inbounds ([3 x i8], [3 x i8]* @.str, i64 0, i64 0), i32 %82)
  br label %101

101:                                              ; preds = %97, %99, %93
  call void @llvm.lifetime.end.p0i8(i64 1600, i8* nonnull %4) #4
  call void @llvm.lifetime.end.p0i8(i64 4, i8* nonnull %3) #4
  ret void

102:                                              ; preds = %54
  %103 = getelementptr inbounds [400 x i32], [400 x i32]* %2, i64 0, i64 %48
  store i32 %58, i32* %103, align 4, !tbaa !5
  store i32 %55, i32* %57, align 8, !tbaa !5
  br label %104

104:                                              ; preds = %102, %54
  %105 = phi i32 [ %58, %54 ], [ %55, %102 ]
  %106 = add i64 %47, -2
  %107 = icmp eq i64 %106, 0
  br i1 %107, label %60, label %44, !llvm.loop !12
}

; Function Attrs: argmemonly mustprogress nofree nosync nounwind willreturn
declare void @llvm.lifetime.start.p0i8(i64 immarg, i8* nocapture) #1

; Function Attrs: nofree nounwind
declare noundef i32 @__isoc99_scanf(i8* nocapture noundef readonly, ...) local_unnamed_addr #2

; Function Attrs: nofree nounwind
declare noundef i32 @printf(i8* nocapture noundef readonly, ...) local_unnamed_addr #2

; Function Attrs: argmemonly mustprogress nofree nosync nounwind willreturn
declare void @llvm.lifetime.end.p0i8(i64 immarg, i8* nocapture) #1

; Function Attrs: nofree nosync nounwind readnone speculatable willreturn
declare <2 x float> @llvm.fabs.v2f32(<2 x float>) #3


!llvm.module.flags = !{!0, !1, !2, !3}
!llvm.ident = !{!4}

!0 = !{i32 1, !"wchar_size", i32 4}
!1 = !{i32 7, !"PIC Level", i32 2}
!2 = !{i32 7, !"PIE Level", i32 2}
!3 = !{i32 7, !"uwtable", i32 1}
!4 = !{!"clang version 13.0.0"}
!5 = !{!6, !6, i64 0}
!6 = !{!"int", !7, i64 0}
!7 = !{!"omnipotent char", !8, i64 0}
!8 = !{!"Simple C/C++ TBAA"}
!9 = distinct !{!9, !10}
!10 = !{!"llvm.loop.mustprogress"}
!11 = distinct !{!11, !10}
!12 = distinct !{!12, !10}
